target datalayout = "e-m:e-p270:32:32-p271:32:32-p272:64:64-i64:64-i128:128-f80:128-n8:16:32:64-S128"
target triple = "x86_64-pc-linux-gnu"

%struct.mpd_context_t = type { i64, i64, i64, i32, i32, i32, i32, i32, i32 }
%struct.mpd_t = type { i8, i64, i64, i64, i64, ptr }

@mpd_free = external hidden global ptr, align 8

; Function Attrs: alwaysinline nounwind uwtable
define hidden i32 @mpd_isdynamic(ptr noundef %0) #1 {
  %2 = alloca ptr, align 8
  store ptr %0, ptr %2, align 8, !tbaa !7
  %3 = load ptr, ptr %2, align 8, !tbaa !7
  %4 = getelementptr inbounds nuw %struct.mpd_t, ptr %3, i32 0, i32 0
  %5 = load i8, ptr %4, align 8, !tbaa !25
  %6 = zext i8 %5 to i32
  %7 = and i32 %6, 16
  %8 = icmp ne i32 %7, 0
  %9 = xor i1 %8, true
  %10 = zext i1 %9 to i32
  ret i32 %10
}

; Function Attrs: alwaysinline nounwind uwtable
define hidden i32 @mpd_isdynamic_data(ptr noundef %0) #1 {
  %2 = alloca ptr, align 8
  store ptr %0, ptr %2, align 8, !tbaa !7
  %3 = load ptr, ptr %2, align 8, !tbaa !7
  %4 = getelementptr inbounds nuw %struct.mpd_t, ptr %3, i32 0, i32 0
  %5 = load i8, ptr %4, align 8, !tbaa !25
  %6 = zext i8 %5 to i32
  %7 = and i32 %6, 224
  %8 = icmp ne i32 %7, 0
  %9 = xor i1 %8, true
  %10 = zext i1 %9 to i32
  ret i32 %10
}

; Function Attrs: alwaysinline nounwind uwtable
define hidden zeroext i8 @mpd_sign(ptr noundef %0) #1 {
  %2 = alloca ptr, align 8
  store ptr %0, ptr %2, align 8, !tbaa !7
  %3 = load ptr, ptr %2, align 8, !tbaa !7
  %4 = getelementptr inbounds nuw %struct.mpd_t, ptr %3, i32 0, i32 0
  %5 = load i8, ptr %4, align 8, !tbaa !25
  %6 = zext i8 %5 to i32
  %7 = and i32 %6, 1
  %8 = trunc i32 %7 to i8
  ret i8 %8
}

; Function Attrs: alwaysinline nounwind uwtable
define hidden i32 @mpd_isspecial(ptr noundef %0) #1 {
  %2 = alloca ptr, align 8
  store ptr %0, ptr %2, align 8, !tbaa !7
  %3 = load ptr, ptr %2, align 8, !tbaa !7
  %4 = getelementptr inbounds nuw %struct.mpd_t, ptr %3, i32 0, i32 0
  %5 = load i8, ptr %4, align 8, !tbaa !25
  %6 = zext i8 %5 to i32
  %7 = and i32 %6, 14
  ret i32 %7
}

; Function Attrs: alwaysinline nounwind uwtable
define hidden void @mpd_del(ptr noundef %0) #1 {
  %2 = alloca ptr, align 8
  store ptr %0, ptr %2, align 8, !tbaa !7
  %3 = load ptr, ptr %2, align 8, !tbaa !7
  %4 = call i32 @mpd_isdynamic_data(ptr noundef %3)
  %5 = icmp ne i32 %4, 0
  br i1 %5, label %6, label %11

6:                                                ; preds = %1
  %7 = load ptr, ptr @mpd_free, align 8, !tbaa !28
  %8 = load ptr, ptr %2, align 8, !tbaa !7
  %9 = getelementptr inbounds nuw %struct.mpd_t, ptr %8, i32 0, i32 5
  %10 = load ptr, ptr %9, align 8, !tbaa !21
  call void %7(ptr noundef %10)
  br label %11

11:                                               ; preds = %6, %1
  %12 = load ptr, ptr %2, align 8, !tbaa !7
  %13 = call i32 @mpd_isdynamic(ptr noundef %12)
  %14 = icmp ne i32 %13, 0
  br i1 %14, label %15, label %18

15:                                               ; preds = %11
  %16 = load ptr, ptr @mpd_free, align 8, !tbaa !28
  %17 = load ptr, ptr %2, align 8, !tbaa !7
  call void %16(ptr noundef %17)
  br label %18

18:                                               ; preds = %15, %11
  ret void
}

; Function Attrs: nounwind uwtable
define hidden void @mpd_qsub(ptr noundef %0, ptr noundef %1, ptr noundef %2, ptr noundef %3, ptr noundef %4) #0 {
  %6 = alloca ptr, align 8
  %7 = alloca ptr, align 8
  %8 = alloca ptr, align 8
  %9 = alloca ptr, align 8
  %10 = alloca ptr, align 8
  store ptr %0, ptr %6, align 8, !tbaa !7
  store ptr %1, ptr %7, align 8, !tbaa !7
  store ptr %2, ptr %8, align 8, !tbaa !7
  store ptr %3, ptr %9, align 8, !tbaa !14
  store ptr %4, ptr %10, align 8, !tbaa !29
  %11 = load ptr, ptr %7, align 8, !tbaa !7
  %12 = call i32 @mpd_isspecial(ptr noundef %11)
  %13 = icmp ne i32 %12, 0
  br i1 %13, label %18, label %14

14:                                               ; preds = %5
  %15 = load ptr, ptr %8, align 8, !tbaa !7
  %16 = call i32 @mpd_isspecial(ptr noundef %15)
  %17 = icmp ne i32 %16, 0
  br i1 %17, label %18, label %38

18:                                               ; preds = %14, %5
  %19 = load ptr, ptr %6, align 8, !tbaa !7
  %20 = load ptr, ptr %7, align 8, !tbaa !7
  %21 = load ptr, ptr %8, align 8, !tbaa !7
  %22 = load ptr, ptr %9, align 8, !tbaa !14
  %23 = load ptr, ptr %10, align 8, !tbaa !29
  %24 = call i32 @mpd_qcheck_nans(ptr noundef %19, ptr noundef %20, ptr noundef %21, ptr noundef %22, ptr noundef %23)
  %25 = icmp ne i32 %24, 0
  br i1 %25, label %26, label %27

26:                                               ; preds = %18
  br label %53

27:                                               ; preds = %18
  %28 = load ptr, ptr %6, align 8, !tbaa !7
  %29 = load ptr, ptr %7, align 8, !tbaa !7
  %30 = load ptr, ptr %8, align 8, !tbaa !7
  %31 = load ptr, ptr %8, align 8, !tbaa !7
  %32 = call zeroext i8 @mpd_sign(ptr noundef %31)
  %33 = icmp ne i8 %32, 0
  %34 = xor i1 %33, true
  %35 = zext i1 %34 to i32
  %36 = trunc i32 %35 to i8
  %37 = load ptr, ptr %10, align 8, !tbaa !29
  call void @_mpd_qaddsub_inf(ptr noundef %28, ptr noundef %29, ptr noundef %30, i8 noundef zeroext %36, ptr noundef %37)
  br label %53

38:                                               ; preds = %14
  %39 = load ptr, ptr %6, align 8, !tbaa !7
  %40 = load ptr, ptr %7, align 8, !tbaa !7
  %41 = load ptr, ptr %8, align 8, !tbaa !7
  %42 = load ptr, ptr %8, align 8, !tbaa !7
  %43 = call zeroext i8 @mpd_sign(ptr noundef %42)
  %44 = icmp ne i8 %43, 0
  %45 = xor i1 %44, true
  %46 = zext i1 %45 to i32
  %47 = trunc i32 %46 to i8
  %48 = load ptr, ptr %9, align 8, !tbaa !14
  %49 = load ptr, ptr %10, align 8, !tbaa !29
  call void @_mpd_qaddsub(ptr noundef %39, ptr noundef %40, ptr noundef %41, i8 noundef zeroext %47, ptr noundef %48, ptr noundef %49)
  %50 = load ptr, ptr %6, align 8, !tbaa !7
  %51 = load ptr, ptr %9, align 8, !tbaa !14
  %52 = load ptr, ptr %10, align 8, !tbaa !29
  call void @mpd_qfinalize(ptr noundef %50, ptr noundef %51, ptr noundef %52)
  br label %53

53:                                               ; preds = %38, %27, %26
  ret void
}

; Function Attrs: nounwind uwtable
define hidden void @mpd_qsset_ssize(ptr noundef %0, i64 noundef %1, ptr noundef %2, ptr noundef %3) #0 {
  %5 = alloca ptr, align 8
  %6 = alloca i64, align 8
  %7 = alloca ptr, align 8
  %8 = alloca ptr, align 8
  %9 = alloca i64, align 8
  %10 = alloca i8, align 1
  store ptr %0, ptr %5, align 8, !tbaa !7
  store i64 %1, ptr %6, align 8, !tbaa !3
  store ptr %2, ptr %7, align 8, !tbaa !14
  store ptr %3, ptr %8, align 8, !tbaa !29
  call void @llvm.lifetime.start.p0(i64 8, ptr %9) #10
  call void @llvm.lifetime.start.p0(i64 1, ptr %10) #10
  store i8 0, ptr %10, align 1, !tbaa !32
  %11 = load i64, ptr %6, align 8, !tbaa !3
  %12 = icmp slt i64 %11, 0
  br i1 %12, label %13, label %21

13:                                               ; preds = %4
  %14 = load i64, ptr %6, align 8, !tbaa !3
  %15 = icmp eq i64 %14, -9223372036854775808
  br i1 %15, label %16, label %17

16:                                               ; preds = %13
  store i64 -9223372036854775808, ptr %9, align 8, !tbaa !3
  br label %20

17:                                               ; preds = %13
  %18 = load i64, ptr %6, align 8, !tbaa !3
  %19 = sub i64 0, %18
  store i64 %19, ptr %9, align 8, !tbaa !3
  br label %20

20:                                               ; preds = %17, %16
  store i8 1, ptr %10, align 1, !tbaa !32
  br label %23

21:                                               ; preds = %4
  %22 = load i64, ptr %6, align 8, !tbaa !3
  store i64 %22, ptr %9, align 8, !tbaa !3
  br label %23

23:                                               ; preds = %21, %20
  %24 = load ptr, ptr %5, align 8, !tbaa !7
  %25 = load i8, ptr %10, align 1, !tbaa !32
  %26 = load i64, ptr %9, align 8, !tbaa !3
  call void @_ssettriple(ptr noundef %24, i8 noundef zeroext %25, i64 noundef %26, i64 noundef 0)
  %27 = load ptr, ptr %5, align 8, !tbaa !7
  %28 = load ptr, ptr %7, align 8, !tbaa !14
  %29 = load ptr, ptr %8, align 8, !tbaa !29
  call void @mpd_qfinalize(ptr noundef %27, ptr noundef %28, ptr noundef %29)
  call void @llvm.lifetime.end.p0(i64 1, ptr %10) #10
  call void @llvm.lifetime.end.p0(i64 8, ptr %9) #10
  ret void
}

; Function Attrs: nounwind uwtable
define hidden void @mpd_qsub_ssize(ptr noundef %0, ptr noundef %1, i64 noundef %2, ptr noundef %3, ptr noundef %4) #0 {
  %6 = alloca ptr, align 8
  %7 = alloca ptr, align 8
  %8 = alloca i64, align 8
  %9 = alloca ptr, align 8
  %10 = alloca ptr, align 8
  %11 = alloca %struct.mpd_context_t, align 8
  %12 = alloca [64 x i64], align 16
  %13 = alloca %struct.mpd_t, align 8
  store ptr %0, ptr %6, align 8, !tbaa !7
  store ptr %1, ptr %7, align 8, !tbaa !7
  store i64 %2, ptr %8, align 8, !tbaa !3
  store ptr %3, ptr %9, align 8, !tbaa !14
  store ptr %4, ptr %10, align 8, !tbaa !29
  call void @llvm.lifetime.start.p0(i64 48, ptr %11) #10
  call void @llvm.lifetime.start.p0(i64 512, ptr %12) #10
  call void @llvm.lifetime.start.p0(i64 48, ptr %13) #10
  %14 = getelementptr inbounds nuw %struct.mpd_t, ptr %13, i32 0, i32 0
  store i8 48, ptr %14, align 8, !tbaa !25
  %15 = getelementptr i8, ptr %13, i64 1
  call void @llvm.memset.p0.i64(ptr align 1 %15, i8 0, i64 7, i1 false)
  %16 = getelementptr inbounds nuw %struct.mpd_t, ptr %13, i32 0, i32 1
  store i64 0, ptr %16, align 8, !tbaa !10
  %17 = getelementptr inbounds nuw %struct.mpd_t, ptr %13, i32 0, i32 2
  store i64 0, ptr %17, align 8, !tbaa !13
  %18 = getelementptr inbounds nuw %struct.mpd_t, ptr %13, i32 0, i32 3
  store i64 0, ptr %18, align 8, !tbaa !22
  %19 = getelementptr inbounds nuw %struct.mpd_t, ptr %13, i32 0, i32 4
  store i64 64, ptr %19, align 8, !tbaa !31
  %20 = getelementptr inbounds nuw %struct.mpd_t, ptr %13, i32 0, i32 5
  %21 = getelementptr inbounds [64 x i64], ptr %12, i64 0, i64 0
  store ptr %21, ptr %20, align 8, !tbaa !21
  call void @mpd_maxcontext(ptr noundef %11)
  %22 = load i64, ptr %8, align 8, !tbaa !3
  %23 = load ptr, ptr %10, align 8, !tbaa !29
  call void @mpd_qsset_ssize(ptr noundef %13, i64 noundef %22, ptr noundef %11, ptr noundef %23)
  %24 = load ptr, ptr %6, align 8, !tbaa !7
  %25 = load ptr, ptr %7, align 8, !tbaa !7
  %26 = load ptr, ptr %9, align 8, !tbaa !14
  %27 = load ptr, ptr %10, align 8, !tbaa !29
  call void @mpd_qsub(ptr noundef %24, ptr noundef %25, ptr noundef %13, ptr noundef %26, ptr noundef %27)
  call void @mpd_del(ptr noundef %13)
  call void @llvm.lifetime.end.p0(i64 48, ptr %13) #10
  call void @llvm.lifetime.end.p0(i64 512, ptr %12) #10
  call void @llvm.lifetime.end.p0(i64 48, ptr %11) #10
  ret void
}