; Function Attrs: nounwind uwtable
define hidden void @mpd_qsub_ssize(ptr noundef %0, ptr noundef %1, i64 noundef %2, ptr noundef readonly captures(none) %3, ptr noundef %4) local_unnamed_addr #10 {
  %6 = alloca %struct.mpd_context_t, align 8
  %7 = alloca [64 x i64], align 16
  %8 = alloca %struct.mpd_t, align 8
  call void @llvm.lifetime.start.p0(i64 48, ptr nonnull %6) #33
  call void @llvm.lifetime.start.p0(i64 512, ptr nonnull %7) #33
  call void @llvm.lifetime.start.p0(i64 48, ptr nonnull %8) #33
  store i8 48, ptr %8, align 8, !tbaa !19
  %9 = getelementptr inbounds nuw i8, ptr %8, i64 1
  %10 = getelementptr inbounds nuw i8, ptr %8, i64 32
  call void @llvm.memset.p0.i64(ptr noundef nonnull align 1 dereferenceable(31) %9, i8 0, i64 31, i1 false)
  store i64 64, ptr %10, align 8, !tbaa !21
  %11 = getelementptr inbounds nuw i8, ptr %8, i64 40
  store ptr %7, ptr %11, align 8, !tbaa !17
  call void @mpd_maxcontext(ptr noundef nonnull %6) #33
  %12 = icmp slt i64 %2, 0
  br i1 %12, label %.split11.i, label %.split.i

.split11.i:                                       ; preds = %5
  %13 = sub i64 0, %2
  call fastcc void @_ssettriple(ptr noundef nonnull %8, i8 noundef zeroext 1, i64 noundef %13, i64 noundef 0)
  br label %mpd_qsset_ssize.exit

.split.i:                                         ; preds = %5
  call fastcc void @_ssettriple(ptr noundef nonnull %8, i8 noundef zeroext 0, i64 noundef %2, i64 noundef 0)
  br label %mpd_qsset_ssize.exit

mpd_qsset_ssize.exit:                             ; preds = %.split11.i, %.split.i
  call void @mpd_qfinalize(ptr noundef nonnull %8, ptr noundef nonnull readonly %6, ptr noundef %4)
  %14 = load i8, ptr %1, align 8, !tbaa !19
  %15 = and i8 %14, 14
  %.not.i5 = icmp eq i8 %15, 0
  br i1 %.not.i5, label %16, label %19

16:                                               ; preds = %mpd_qsset_ssize.exit
  %17 = load i8, ptr %8, align 8, !tbaa !19
  %18 = and i8 %17, 14
  %.not21.i = icmp eq i8 %18, 0
  br i1 %.not21.i, label %25, label %19

19:                                               ; preds = %16, %mpd_qsset_ssize.exit
  %20 = call i32 @mpd_qcheck_nans(ptr noundef %0, ptr noundef nonnull %1, ptr noundef nonnull %8, ptr noundef readonly %3, ptr noundef %4)
  %.not23.i = icmp eq i32 %20, 0
  br i1 %.not23.i, label %21, label %mpd_qsub.exit

21:                                               ; preds = %19
  %22 = load i8, ptr %8, align 8, !tbaa !19
  %23 = and i8 %22, 1
  %24 = xor i8 %23, 1
  %.val.i = load i8, ptr %1, align 8, !tbaa !19
  call fastcc void @_mpd_qaddsub_inf(ptr noundef %0, i8 %.val.i, ptr noundef nonnull %8, i8 noundef zeroext %24, ptr noundef %4)
  br label %mpd_qsub.exit

25:                                               ; preds = %16
  %26 = and i8 %17, 1
  %27 = xor i8 %26, 1
  call fastcc void @_mpd_qaddsub(ptr noundef %0, ptr noundef nonnull %1, ptr noundef nonnull %8, i8 noundef zeroext %27, ptr noundef readonly %3, ptr noundef %4)
  call void @mpd_qfinalize(ptr noundef %0, ptr noundef readonly %3, ptr noundef %4)
  br label %mpd_qsub.exit

mpd_qsub.exit:                                    ; preds = %19, %21, %25
  %28 = load i8, ptr %8, align 8, !tbaa !19
  %.not.i5.i = icmp ugt i8 %28, 31
  br i1 %.not.i5.i, label %32, label %29

29:                                               ; preds = %mpd_qsub.exit
  %30 = load ptr, ptr @mpd_free, align 8, !tbaa !20
  %31 = load ptr, ptr %11, align 8, !tbaa !17
  call void %30(ptr noundef %31) #33
  %.pre = load i8, ptr %8, align 8, !tbaa !19
  br label %32

32:                                               ; preds = %29, %mpd_qsub.exit
  %33 = phi i8 [ %.pre, %29 ], [ %28, %mpd_qsub.exit ]
  %34 = and i8 %33, 16
  %.not.i.i.not = icmp eq i8 %34, 0
  br i1 %.not.i.i.not, label %35, label %mpd_del.exit

35:                                               ; preds = %32
  %36 = load ptr, ptr @mpd_free, align 8, !tbaa !20
  call void %36(ptr noundef nonnull %8) #33
  br label %mpd_del.exit

mpd_del.exit:                                     ; preds = %32, %35
  call void @llvm.lifetime.end.p0(i64 48, ptr nonnull %8) #33
  call void @llvm.lifetime.end.p0(i64 512, ptr nonnull %7) #33
  call void @llvm.lifetime.end.p0(i64 48, ptr nonnull %6) #33
  ret void
}